; Function Attrs: mustprogress uwtable
define void @_ZNK5Ipopt15ExpansionMatrix18ComputeColAMaxImplERNS_6VectorEb(ptr nonnull readnone align 8 captures(none) %0, ptr noundef nonnull align 8 dereferenceable(205) %1, i1 noundef zeroext %2) unnamed_addr #0 align 2 personality ptr @__gxx_personality_v0 {
  br i1 %2, label %4, label %8

4:                                                ; preds = %3
  %5 = load ptr, ptr %1, align 8, !tbaa !8
  %6 = getelementptr inbounds nuw i8, ptr %5, i64 72
  %7 = load ptr, ptr %6, align 8
  tail call void %7(ptr noundef nonnull align 8 dereferenceable(205) %1, double noundef 1.000000e+00)
  tail call void @_ZN5Ipopt12TaggedObject13ObjectChangedEv(ptr noundef nonnull align 8 dereferenceable(205) %1)
  br label %_ZN5Ipopt8SmartPtrINS_6VectorEED2Ev.exit

8:                                                ; preds = %3
  %9 = getelementptr inbounds nuw i8, ptr %1, i64 56
  %10 = load ptr, ptr %9, align 8, !tbaa !76
  %11 = load ptr, ptr %10, align 8, !tbaa !8
  %12 = getelementptr inbounds nuw i8, ptr %11, i64 16
  %13 = load ptr, ptr %12, align 8
  %14 = tail call noundef ptr %13(ptr noundef nonnull align 8 dereferenceable(16) %10)
  %.not.i.i = icmp eq ptr %14, null
  br i1 %.not.i.i, label %_ZN5Ipopt8SmartPtrINS_6VectorEEC2EPS1_.exit, label %15

15:                                               ; preds = %8
  %16 = getelementptr inbounds nuw i8, ptr %14, i64 8
  %17 = load i32, ptr %16, align 8, !tbaa !3
  %18 = add nsw i32 %17, 1
  store i32 %18, ptr %16, align 8, !tbaa !3
  br label %_ZN5Ipopt8SmartPtrINS_6VectorEEC2EPS1_.exit

_ZN5Ipopt8SmartPtrINS_6VectorEEC2EPS1_.exit:      ; preds = %8, %15
  %19 = load ptr, ptr %14, align 8, !tbaa !8
  %20 = getelementptr inbounds nuw i8, ptr %19, i64 72
  %21 = load ptr, ptr %20, align 8
  invoke void %21(ptr noundef nonnull align 8 dereferenceable(205) %14, double noundef 1.000000e+00)
          to label %.noexc unwind label %33

.noexc:                                           ; preds = %_ZN5Ipopt8SmartPtrINS_6VectorEEC2EPS1_.exit
  invoke void @_ZN5Ipopt12TaggedObject13ObjectChangedEv(ptr noundef nonnull align 8 dereferenceable(205) %14)
          to label %_ZN5Ipopt6Vector3SetEd.exit unwind label %33

_ZN5Ipopt6Vector3SetEd.exit:                      ; preds = %.noexc
  %22 = load ptr, ptr %1, align 8, !tbaa !8
  %23 = getelementptr inbounds nuw i8, ptr %22, i64 104
  %24 = load ptr, ptr %23, align 8
  invoke void %24(ptr noundef nonnull align 8 dereferenceable(205) %1, ptr noundef nonnull align 8 dereferenceable(205) %14)
          to label %.noexc6 unwind label %33

.noexc6:                                          ; preds = %_ZN5Ipopt6Vector3SetEd.exit
  invoke void @_ZN5Ipopt12TaggedObject13ObjectChangedEv(ptr noundef nonnull align 8 dereferenceable(205) %1)
          to label %_ZN5Ipopt6Vector14ElementWiseMaxERKS0_.exit unwind label %33

_ZN5Ipopt6Vector14ElementWiseMaxERKS0_.exit:      ; preds = %.noexc6
  %25 = getelementptr inbounds nuw i8, ptr %14, i64 8
  %26 = load i32, ptr %25, align 8, !tbaa !3
  %27 = add nsw i32 %26, -1
  store i32 %27, ptr %25, align 8, !tbaa !3
  %28 = icmp eq i32 %27, 0
  br i1 %28, label %29, label %_ZN5Ipopt8SmartPtrINS_6VectorEED2Ev.exit

29:                                               ; preds = %_ZN5Ipopt6Vector14ElementWiseMaxERKS0_.exit
  %30 = load ptr, ptr %14, align 8, !tbaa !8
  %31 = getelementptr inbounds nuw i8, ptr %30, i64 8
  %32 = load ptr, ptr %31, align 8
  tail call void %32(ptr noundef nonnull align 8 dereferenceable(205) %14) #12
  br label %_ZN5Ipopt8SmartPtrINS_6VectorEED2Ev.exit

33:                                               ; preds = %_ZN5Ipopt8SmartPtrINS_6VectorEEC2EPS1_.exit, %.noexc, %_ZN5Ipopt6Vector3SetEd.exit, %.noexc6
  %34 = landingpad { ptr, i32 }
          cleanup
  %35 = getelementptr inbounds nuw i8, ptr %14, i64 8
  %36 = load i32, ptr %35, align 8, !tbaa !3
  %37 = add nsw i32 %36, -1
  store i32 %37, ptr %35, align 8, !tbaa !3
  %38 = icmp eq i32 %37, 0
  br i1 %38, label %39, label %_ZN5Ipopt8SmartPtrINS_6VectorEED2Ev.exit10

39:                                               ; preds = %33
  %40 = load ptr, ptr %14, align 8, !tbaa !8
  %41 = getelementptr inbounds nuw i8, ptr %40, i64 8
  %42 = load ptr, ptr %41, align 8
  tail call void %42(ptr noundef nonnull align 8 dereferenceable(205) %14) #12
  br label %_ZN5Ipopt8SmartPtrINS_6VectorEED2Ev.exit10

_ZN5Ipopt8SmartPtrINS_6VectorEED2Ev.exit10:       ; preds = %33, %39
  resume { ptr, i32 } %34

_ZN5Ipopt8SmartPtrINS_6VectorEED2Ev.exit:         ; preds = %29, %_ZN5Ipopt6Vector14ElementWiseMaxERKS0_.exit, %4
  ret void
}